target datalayout = "e-m:e-p270:32:32-p271:32:32-p272:64:64-i64:64-i128:128-f80:128-n8:16:32:64-S128"
target triple = "x86_64-pc-linux-gnu"

%struct._priv_exr_context_t = type { i8, i8, i8, i8, i8, i8, i8, i8, %struct.exr_attr_string_t, %struct.exr_attr_string_t, ptr, ptr, ptr, ptr, ptr, ptr, ptr, ptr, i32, i32, i32, i32, i32, float, ptr, ptr, ptr, i64, ptr, ptr, i64, i32, i32, i32, i32, %struct._priv_exr_part_t, ptr, ptr, %struct.exr_attribute_list, %union.pthread_mutex_t, i8, i8, [2 x i8], i32 }
%struct.exr_attr_string_t = type { i32, i32, ptr }
%struct._priv_exr_part_t = type { i32, i32, %struct.exr_attribute_list, ptr, ptr, ptr, ptr, ptr, ptr, ptr, ptr, ptr, ptr, ptr, ptr, ptr, ptr, %struct.exr_attr_box2i_t, %struct.exr_attr_box2i_t, i32, i32, i32, float, i32, i32, ptr, ptr, ptr, ptr, i64, i16, i16, i32, i64, i64 }
%struct.exr_attr_box2i_t = type { %struct.exr_attr_v2i_t, %struct.exr_attr_v2i_t }
%struct.exr_attr_v2i_t = type { i32, i32 }
%struct.exr_attribute_list = type { i32, i32, ptr, ptr }
%union.pthread_mutex_t = type { %struct.__pthread_mutex_s }
%struct.__pthread_mutex_s = type { i32, i32, i32, i32, i32, i16, i16, %struct.__pthread_internal_list }
%struct.__pthread_internal_list = type { ptr, ptr }

@.str.23 = private unnamed_addr constant [46 x i8] c"write requested with no output offset pointer\00", align 1

; Function Attrs: nounwind uwtable
define internal i32 @dispatch_write(ptr noundef %0, ptr noundef %1, i64 noundef %2, ptr noundef %3) #0 {
  %5 = alloca i32, align 4
  %6 = alloca ptr, align 8
  %7 = alloca ptr, align 8
  %8 = alloca i64, align 8
  %9 = alloca ptr, align 8
  %10 = alloca i64, align 8
  %11 = alloca i32, align 4
  store ptr %0, ptr %6, align 8, !tbaa !12
  store ptr %1, ptr %7, align 8, !tbaa !45
  store i64 %2, ptr %8, align 8, !tbaa !46
  store ptr %3, ptr %9, align 8, !tbaa !47
  call void @llvm.lifetime.start.p0(i64 8, ptr %10) #9
  store i64 -1, ptr %10, align 8, !tbaa !46
  %12 = load ptr, ptr %6, align 8, !tbaa !12
  %13 = icmp ne ptr %12, null
  br i1 %13, label %15, label %14

14:                                               ; preds = %4
  store i32 2, ptr %5, align 4
  store i32 1, ptr %11, align 4
  br label %64

15:                                               ; preds = %4
  %16 = load ptr, ptr %9, align 8, !tbaa !47
  %17 = icmp ne ptr %16, null
  br i1 %17, label %24, label %18

18:                                               ; preds = %15
  %19 = load ptr, ptr %6, align 8, !tbaa !12
  %20 = getelementptr inbounds nuw %struct._priv_exr_context_t, ptr %19, i32 0, i32 13
  %21 = load ptr, ptr %20, align 8, !tbaa !49
  %22 = load ptr, ptr %6, align 8, !tbaa !12
  %23 = call i32 %21(ptr noundef %22, i32 noundef 3, ptr noundef @.str.23)
  store i32 %23, ptr %5, align 4
  store i32 1, ptr %11, align 4
  br label %64

24:                                               ; preds = %15
  %25 = load ptr, ptr %6, align 8, !tbaa !12
  %26 = getelementptr inbounds nuw %struct._priv_exr_context_t, ptr %25, i32 0, i32 29
  %27 = load ptr, ptr %26, align 8, !tbaa !69
  %28 = icmp ne ptr %27, null
  br i1 %28, label %29, label %45

29:                                               ; preds = %24
  %30 = load ptr, ptr %6, align 8, !tbaa !12
  %31 = getelementptr inbounds nuw %struct._priv_exr_context_t, ptr %30, i32 0, i32 29
  %32 = load ptr, ptr %31, align 8, !tbaa !69
  %33 = load ptr, ptr %6, align 8, !tbaa !12
  %34 = load ptr, ptr %6, align 8, !tbaa !12
  %35 = getelementptr inbounds nuw %struct._priv_exr_context_t, ptr %34, i32 0, i32 25
  %36 = load ptr, ptr %35, align 8, !tbaa !51
  %37 = load ptr, ptr %7, align 8, !tbaa !45
  %38 = load i64, ptr %8, align 8, !tbaa !46
  %39 = load ptr, ptr %9, align 8, !tbaa !47
  %40 = load i64, ptr %39, align 8, !tbaa !46
  %41 = load ptr, ptr %6, align 8, !tbaa !12
  %42 = getelementptr inbounds nuw %struct._priv_exr_context_t, ptr %41, i32 0, i32 14
  %43 = load ptr, ptr %42, align 8, !tbaa !52
  %44 = call i64 %32(ptr noundef %33, ptr noundef %36, ptr noundef %37, i64 noundef %38, i64 noundef %40, ptr noundef %43)
  store i64 %44, ptr %10, align 8, !tbaa !46
  br label %51

45:                                               ; preds = %24
  %46 = load ptr, ptr %6, align 8, !tbaa !12
  %47 = getelementptr inbounds nuw %struct._priv_exr_context_t, ptr %46, i32 0, i32 12
  %48 = load ptr, ptr %47, align 8, !tbaa !53
  %49 = load ptr, ptr %6, align 8, !tbaa !12
  %50 = call i32 %48(ptr noundef %49, i32 noundef 8)
  store i32 %50, ptr %5, align 4
  store i32 1, ptr %11, align 4
  br label %64

51:                                               ; preds = %29
  %52 = load i64, ptr %10, align 8, !tbaa !46
  %53 = icmp sgt i64 %52, 0
  br i1 %53, label %54, label %59

54:                                               ; preds = %51
  %55 = load i64, ptr %10, align 8, !tbaa !46
  %56 = load ptr, ptr %9, align 8, !tbaa !47
  %57 = load i64, ptr %56, align 8, !tbaa !46
  %58 = add i64 %57, %55
  store i64 %58, ptr %56, align 8, !tbaa !46
  br label %59

59:                                               ; preds = %54, %51
  %60 = load i64, ptr %10, align 8, !tbaa !46
  %61 = load i64, ptr %8, align 8, !tbaa !46
  %62 = icmp eq i64 %60, %61
  %63 = select i1 %62, i32 0, i32 11
  store i32 %63, ptr %5, align 4
  store i32 1, ptr %11, align 4
  br label %64

64:                                               ; preds = %59, %45, %18, %14
  call void @llvm.lifetime.end.p0(i64 8, ptr %10) #9
  %65 = load i32, ptr %5, align 4
  ret i32 %65
}