; Function Attrs: nounwind uwtable
define internal i32 @dispatch_write(ptr noundef %0, ptr noundef %1, i64 noundef %2, ptr noundef %3) #0 {
  %.not = icmp eq ptr %0, null
  br i1 %.not, label %31, label %5

5:                                                ; preds = %4
  %.not23 = icmp eq ptr %3, null
  br i1 %.not23, label %6, label %10

6:                                                ; preds = %5
  %7 = getelementptr inbounds nuw i8, ptr %0, i64 64
  %8 = load ptr, ptr %7, align 8, !tbaa !54
  %9 = tail call i32 %8(ptr noundef nonnull %0, i32 noundef 3, ptr noundef nonnull @.str.23) #13
  br label %31

10:                                               ; preds = %5
  %11 = getelementptr inbounds nuw i8, ptr %0, i64 168
  %12 = load ptr, ptr %11, align 8, !tbaa !70
  %.not24 = icmp eq ptr %12, null
  br i1 %.not24, label %21, label %13

13:                                               ; preds = %10
  %14 = getelementptr inbounds nuw i8, ptr %0, i64 136
  %15 = load ptr, ptr %14, align 8, !tbaa !44
  %16 = load i64, ptr %3, align 8, !tbaa !53
  %17 = getelementptr inbounds nuw i8, ptr %0, i64 72
  %18 = load ptr, ptr %17, align 8, !tbaa !50
  %19 = tail call i64 %12(ptr noundef nonnull %0, ptr noundef %15, ptr noundef %1, i64 noundef %2, i64 noundef %16, ptr noundef %18) #13
  %20 = icmp sgt i64 %19, 0
  br i1 %20, label %25, label %28

21:                                               ; preds = %10
  %22 = getelementptr inbounds nuw i8, ptr %0, i64 56
  %23 = load ptr, ptr %22, align 8, !tbaa !55
  %24 = tail call i32 %23(ptr noundef nonnull %0, i32 noundef 8) #13
  br label %31

25:                                               ; preds = %13
  %26 = load i64, ptr %3, align 8, !tbaa !53
  %27 = add i64 %26, %19
  store i64 %27, ptr %3, align 8, !tbaa !53
  br label %28

28:                                               ; preds = %25, %13
  %29 = icmp eq i64 %19, %2
  %30 = select i1 %29, i32 0, i32 11
  br label %31

31:                                               ; preds = %4, %28, %21, %6
  %.0 = phi i32 [ %30, %28 ], [ %24, %21 ], [ %9, %6 ], [ 2, %4 ]
  ret i32 %.0
}